target datalayout = "e-m:e-p270:32:32-p271:32:32-p272:64:64-i64:64-i128:128-f80:128-n8:16:32:64-S128"
target triple = "x86_64-pc-linux-gnu"

%struct.GENERAL_NAME_st = type { i32, %union.anon }
%union.anon = type { ptr }
%struct.asn1_string_st = type { i32, i32, ptr, i64 }

@.str.11 = private unnamed_addr constant [11 x i8] c"IP Address\00", align 1
@.str.13 = private unnamed_addr constant [14 x i8] c"Registered ID\00", align 1
@.str.14 = private unnamed_addr constant [24 x i8] c"othername:<unsupported>\00", align 1
@.str.15 = private unnamed_addr constant [23 x i8] c"X400Name:<unsupported>\00", align 1
@.str.16 = private unnamed_addr constant [27 x i8] c"EdiPartyName:<unsupported>\00", align 1
@.str.17 = private unnamed_addr constant [9 x i8] c"email:%s\00", align 1
@.str.18 = private unnamed_addr constant [7 x i8] c"DNS:%s\00", align 1
@.str.19 = private unnamed_addr constant [7 x i8] c"URI:%s\00", align 1
@.str.20 = private unnamed_addr constant [10 x i8] c"DirName: \00", align 1
@.str.21 = private unnamed_addr constant [23 x i8] c"IP Address:%d.%d.%d.%d\00", align 1
@.str.22 = private unnamed_addr constant [4 x i8] c":%X\00", align 1
@.str.23 = private unnamed_addr constant [2 x i8] c"\0A\00", align 1
@.str.24 = private unnamed_addr constant [21 x i8] c"IP Address:<invalid>\00", align 1

; Function Attrs: nounwind uwtable
define hidden i32 @GENERAL_NAME_print(ptr noundef %0, ptr noundef %1) #0 {
  %3 = alloca ptr, align 8
  %4 = alloca ptr, align 8
  %5 = alloca ptr, align 8
  %6 = alloca i32, align 4
  store ptr %0, ptr %3, align 8, !tbaa !41
  store ptr %1, ptr %4, align 8, !tbaa !17
  call void @llvm.lifetime.start.p0(i64 8, ptr %5) #6
  call void @llvm.lifetime.start.p0(i64 4, ptr %6) #6
  %7 = load ptr, ptr %4, align 8, !tbaa !17
  %8 = getelementptr inbounds nuw %struct.GENERAL_NAME_st, ptr %7, i32 0, i32 0
  %9 = load i32, ptr %8, align 8, !tbaa !31
  switch i32 %9, label %129 [
    i32 0, label %10
    i32 3, label %13
    i32 5, label %16
    i32 1, label %19
    i32 2, label %27
    i32 6, label %35
    i32 4, label %43
    i32 7, label %51
    i32 8, label %121
  ]

10:                                               ; preds = %2
  %11 = load ptr, ptr %3, align 8, !tbaa !41
  %12 = call i32 (ptr, ptr, ...) @BIO_printf(ptr noundef %11, ptr noundef @.str.14)
  br label %129

13:                                               ; preds = %2
  %14 = load ptr, ptr %3, align 8, !tbaa !41
  %15 = call i32 (ptr, ptr, ...) @BIO_printf(ptr noundef %14, ptr noundef @.str.15)
  br label %129

16:                                               ; preds = %2
  %17 = load ptr, ptr %3, align 8, !tbaa !41
  %18 = call i32 (ptr, ptr, ...) @BIO_printf(ptr noundef %17, ptr noundef @.str.16)
  br label %129

19:                                               ; preds = %2
  %20 = load ptr, ptr %3, align 8, !tbaa !41
  %21 = load ptr, ptr %4, align 8, !tbaa !17
  %22 = getelementptr inbounds nuw %struct.GENERAL_NAME_st, ptr %21, i32 0, i32 1
  %23 = load ptr, ptr %22, align 8, !tbaa !34
  %24 = getelementptr inbounds nuw %struct.asn1_string_st, ptr %23, i32 0, i32 2
  %25 = load ptr, ptr %24, align 8, !tbaa !35
  %26 = call i32 (ptr, ptr, ...) @BIO_printf(ptr noundef %20, ptr noundef @.str.17, ptr noundef %25)
  br label %129

27:                                               ; preds = %2
  %28 = load ptr, ptr %3, align 8, !tbaa !41
  %29 = load ptr, ptr %4, align 8, !tbaa !17
  %30 = getelementptr inbounds nuw %struct.GENERAL_NAME_st, ptr %29, i32 0, i32 1
  %31 = load ptr, ptr %30, align 8, !tbaa !34
  %32 = getelementptr inbounds nuw %struct.asn1_string_st, ptr %31, i32 0, i32 2
  %33 = load ptr, ptr %32, align 8, !tbaa !35
  %34 = call i32 (ptr, ptr, ...) @BIO_printf(ptr noundef %28, ptr noundef @.str.18, ptr noundef %33)
  br label %129

35:                                               ; preds = %2
  %36 = load ptr, ptr %3, align 8, !tbaa !41
  %37 = load ptr, ptr %4, align 8, !tbaa !17
  %38 = getelementptr inbounds nuw %struct.GENERAL_NAME_st, ptr %37, i32 0, i32 1
  %39 = load ptr, ptr %38, align 8, !tbaa !34
  %40 = getelementptr inbounds nuw %struct.asn1_string_st, ptr %39, i32 0, i32 2
  %41 = load ptr, ptr %40, align 8, !tbaa !35
  %42 = call i32 (ptr, ptr, ...) @BIO_printf(ptr noundef %36, ptr noundef @.str.19, ptr noundef %41)
  br label %129

43:                                               ; preds = %2
  %44 = load ptr, ptr %3, align 8, !tbaa !41
  %45 = call i32 (ptr, ptr, ...) @BIO_printf(ptr noundef %44, ptr noundef @.str.20)
  %46 = load ptr, ptr %3, align 8, !tbaa !41
  %47 = load ptr, ptr %4, align 8, !tbaa !17
  %48 = getelementptr inbounds nuw %struct.GENERAL_NAME_st, ptr %47, i32 0, i32 1
  %49 = load ptr, ptr %48, align 8, !tbaa !34
  %50 = call i32 @X509_NAME_print_ex(ptr noundef %46, ptr noundef %49, i32 noundef 0, i64 noundef 8520479)
  br label %129

51:                                               ; preds = %2
  %52 = load ptr, ptr %4, align 8, !tbaa !17
  %53 = getelementptr inbounds nuw %struct.GENERAL_NAME_st, ptr %52, i32 0, i32 1
  %54 = load ptr, ptr %53, align 8, !tbaa !34
  %55 = getelementptr inbounds nuw %struct.asn1_string_st, ptr %54, i32 0, i32 2
  %56 = load ptr, ptr %55, align 8, !tbaa !35
  store ptr %56, ptr %5, align 8, !tbaa !37
  %57 = load ptr, ptr %4, align 8, !tbaa !17
  %58 = getelementptr inbounds nuw %struct.GENERAL_NAME_st, ptr %57, i32 0, i32 1
  %59 = load ptr, ptr %58, align 8, !tbaa !34
  %60 = getelementptr inbounds nuw %struct.asn1_string_st, ptr %59, i32 0, i32 0
  %61 = load i32, ptr %60, align 8, !tbaa !38
  %62 = icmp eq i32 %61, 4
  br i1 %62, label %63, label %82

63:                                               ; preds = %51
  %64 = load ptr, ptr %3, align 8, !tbaa !41
  %65 = load ptr, ptr %5, align 8, !tbaa !37
  %66 = getelementptr inbounds i8, ptr %65, i64 0
  %67 = load i8, ptr %66, align 1, !tbaa !34
  %68 = zext i8 %67 to i32
  %69 = load ptr, ptr %5, align 8, !tbaa !37
  %70 = getelementptr inbounds i8, ptr %69, i64 1
  %71 = load i8, ptr %70, align 1, !tbaa !34
  %72 = zext i8 %71 to i32
  %73 = load ptr, ptr %5, align 8, !tbaa !37
  %74 = getelementptr inbounds i8, ptr %73, i64 2
  %75 = load i8, ptr %74, align 1, !tbaa !34
  %76 = zext i8 %75 to i32
  %77 = load ptr, ptr %5, align 8, !tbaa !37
  %78 = getelementptr inbounds i8, ptr %77, i64 3
  %79 = load i8, ptr %78, align 1, !tbaa !34
  %80 = zext i8 %79 to i32
  %81 = call i32 (ptr, ptr, ...) @BIO_printf(ptr noundef %64, ptr noundef @.str.21, i32 noundef %68, i32 noundef %72, i32 noundef %76, i32 noundef %80)
  br label %120

82:                                               ; preds = %51
  %83 = load ptr, ptr %4, align 8, !tbaa !17
  %84 = getelementptr inbounds nuw %struct.GENERAL_NAME_st, ptr %83, i32 0, i32 1
  %85 = load ptr, ptr %84, align 8, !tbaa !34
  %86 = getelementptr inbounds nuw %struct.asn1_string_st, ptr %85, i32 0, i32 0
  %87 = load i32, ptr %86, align 8, !tbaa !38
  %88 = icmp eq i32 %87, 16
  br i1 %88, label %89, label %116

89:                                               ; preds = %82
  %90 = load ptr, ptr %3, align 8, !tbaa !41
  %91 = call i32 (ptr, ptr, ...) @BIO_printf(ptr noundef %90, ptr noundef @.str.11)
  store i32 0, ptr %6, align 4, !tbaa !39
  br label %92

92:                                               ; preds = %110, %89
  %93 = load i32, ptr %6, align 4, !tbaa !39
  %94 = icmp slt i32 %93, 8
  br i1 %94, label %95, label %113

95:                                               ; preds = %92
  %96 = load ptr, ptr %3, align 8, !tbaa !41
  %97 = load ptr, ptr %5, align 8, !tbaa !37
  %98 = getelementptr inbounds i8, ptr %97, i64 0
  %99 = load i8, ptr %98, align 1, !tbaa !34
  %100 = zext i8 %99 to i32
  %101 = shl i32 %100, 8
  %102 = load ptr, ptr %5, align 8, !tbaa !37
  %103 = getelementptr inbounds i8, ptr %102, i64 1
  %104 = load i8, ptr %103, align 1, !tbaa !34
  %105 = zext i8 %104 to i32
  %106 = or i32 %101, %105
  %107 = call i32 (ptr, ptr, ...) @BIO_printf(ptr noundef %96, ptr noundef @.str.22, i32 noundef %106)
  %108 = load ptr, ptr %5, align 8, !tbaa !37
  %109 = getelementptr inbounds i8, ptr %108, i64 2
  store ptr %109, ptr %5, align 8, !tbaa !37
  br label %110

110:                                              ; preds = %95
  %111 = load i32, ptr %6, align 4, !tbaa !39
  %112 = add nsw i32 %111, 1
  store i32 %112, ptr %6, align 4, !tbaa !39
  br label %92, !llvm.loop !43

113:                                              ; preds = %92
  %114 = load ptr, ptr %3, align 8, !tbaa !41
  %115 = call i32 @BIO_puts(ptr noundef %114, ptr noundef @.str.23)
  br label %119

116:                                              ; preds = %82
  %117 = load ptr, ptr %3, align 8, !tbaa !41
  %118 = call i32 (ptr, ptr, ...) @BIO_printf(ptr noundef %117, ptr noundef @.str.24)
  br label %129

119:                                              ; preds = %113
  br label %120

120:                                              ; preds = %119, %63
  br label %129

121:                                              ; preds = %2
  %122 = load ptr, ptr %3, align 8, !tbaa !41
  %123 = call i32 (ptr, ptr, ...) @BIO_printf(ptr noundef %122, ptr noundef @.str.13)
  %124 = load ptr, ptr %3, align 8, !tbaa !41
  %125 = load ptr, ptr %4, align 8, !tbaa !17
  %126 = getelementptr inbounds nuw %struct.GENERAL_NAME_st, ptr %125, i32 0, i32 1
  %127 = load ptr, ptr %126, align 8, !tbaa !34
  %128 = call i32 @i2a_ASN1_OBJECT(ptr noundef %124, ptr noundef %127)
  br label %129

129:                                              ; preds = %2, %121, %120, %116, %43, %35, %27, %19, %16, %13, %10
  call void @llvm.lifetime.end.p0(i64 4, ptr %6) #6
  call void @llvm.lifetime.end.p0(i64 8, ptr %5) #6
  ret i32 1
}