; Function Attrs: nounwind uwtable
define hidden noundef i32 @GENERAL_NAME_print(ptr noundef %0, ptr noundef readonly captures(none) %1) local_unnamed_addr #0 {
  %3 = load i32, ptr %1, align 8, !tbaa !28
  switch i32 %3, label %74 [
    i32 0, label %4
    i32 3, label %6
    i32 5, label %8
    i32 1, label %10
    i32 2, label %16
    i32 6, label %22
    i32 4, label %28
    i32 7, label %33
    i32 8, label %69
  ]

4:                                                ; preds = %2
  %5 = tail call i32 (ptr, ptr, ...) @BIO_printf(ptr noundef %0, ptr noundef nonnull @.str.14) #7
  br label %74

6:                                                ; preds = %2
  %7 = tail call i32 (ptr, ptr, ...) @BIO_printf(ptr noundef %0, ptr noundef nonnull @.str.15) #7
  br label %74

8:                                                ; preds = %2
  %9 = tail call i32 (ptr, ptr, ...) @BIO_printf(ptr noundef %0, ptr noundef nonnull @.str.16) #7
  br label %74

10:                                               ; preds = %2
  %11 = getelementptr inbounds nuw i8, ptr %1, i64 8
  %12 = load ptr, ptr %11, align 8, !tbaa !30
  %13 = getelementptr inbounds nuw i8, ptr %12, i64 8
  %14 = load ptr, ptr %13, align 8, !tbaa !31
  %15 = tail call i32 (ptr, ptr, ...) @BIO_printf(ptr noundef %0, ptr noundef nonnull @.str.17, ptr noundef %14) #7
  br label %74

16:                                               ; preds = %2
  %17 = getelementptr inbounds nuw i8, ptr %1, i64 8
  %18 = load ptr, ptr %17, align 8, !tbaa !30
  %19 = getelementptr inbounds nuw i8, ptr %18, i64 8
  %20 = load ptr, ptr %19, align 8, !tbaa !31
  %21 = tail call i32 (ptr, ptr, ...) @BIO_printf(ptr noundef %0, ptr noundef nonnull @.str.18, ptr noundef %20) #7
  br label %74

22:                                               ; preds = %2
  %23 = getelementptr inbounds nuw i8, ptr %1, i64 8
  %24 = load ptr, ptr %23, align 8, !tbaa !30
  %25 = getelementptr inbounds nuw i8, ptr %24, i64 8
  %26 = load ptr, ptr %25, align 8, !tbaa !31
  %27 = tail call i32 (ptr, ptr, ...) @BIO_printf(ptr noundef %0, ptr noundef nonnull @.str.19, ptr noundef %26) #7
  br label %74

28:                                               ; preds = %2
  %29 = tail call i32 (ptr, ptr, ...) @BIO_printf(ptr noundef %0, ptr noundef nonnull @.str.20) #7
  %30 = getelementptr inbounds nuw i8, ptr %1, i64 8
  %31 = load ptr, ptr %30, align 8, !tbaa !30
  %32 = tail call i32 @X509_NAME_print_ex(ptr noundef %0, ptr noundef %31, i32 noundef 0, i64 noundef 8520479) #7
  br label %74

33:                                               ; preds = %2
  %34 = getelementptr inbounds nuw i8, ptr %1, i64 8
  %35 = load ptr, ptr %34, align 8, !tbaa !30
  %36 = getelementptr inbounds nuw i8, ptr %35, i64 8
  %37 = load ptr, ptr %36, align 8, !tbaa !31
  %38 = load i32, ptr %35, align 8, !tbaa !34
  switch i32 %38, label %67 [
    i32 4, label %39
    i32 16, label %52
  ]

39:                                               ; preds = %33
  %40 = load i8, ptr %37, align 1, !tbaa !30
  %41 = zext i8 %40 to i32
  %42 = getelementptr inbounds nuw i8, ptr %37, i64 1
  %43 = load i8, ptr %42, align 1, !tbaa !30
  %44 = zext i8 %43 to i32
  %45 = getelementptr inbounds nuw i8, ptr %37, i64 2
  %46 = load i8, ptr %45, align 1, !tbaa !30
  %47 = zext i8 %46 to i32
  %48 = getelementptr inbounds nuw i8, ptr %37, i64 3
  %49 = load i8, ptr %48, align 1, !tbaa !30
  %50 = zext i8 %49 to i32
  %51 = tail call i32 (ptr, ptr, ...) @BIO_printf(ptr noundef %0, ptr noundef nonnull @.str.21, i32 noundef %41, i32 noundef %44, i32 noundef %47, i32 noundef %50) #7
  br label %74

52:                                               ; preds = %33
  %53 = tail call i32 (ptr, ptr, ...) @BIO_printf(ptr noundef %0, ptr noundef nonnull @.str.11) #7
  br label %54

54:                                               ; preds = %52, %54
  %.035 = phi i32 [ 0, %52 ], [ %64, %54 ]
  %.03234 = phi ptr [ %37, %52 ], [ %63, %54 ]
  %55 = load i8, ptr %.03234, align 1, !tbaa !30
  %56 = zext i8 %55 to i32
  %57 = shl nuw nsw i32 %56, 8
  %58 = getelementptr inbounds nuw i8, ptr %.03234, i64 1
  %59 = load i8, ptr %58, align 1, !tbaa !30
  %60 = zext i8 %59 to i32
  %61 = or disjoint i32 %57, %60
  %62 = tail call i32 (ptr, ptr, ...) @BIO_printf(ptr noundef %0, ptr noundef nonnull @.str.22, i32 noundef %61) #7
  %63 = getelementptr inbounds nuw i8, ptr %.03234, i64 2
  %64 = add nuw nsw i32 %.035, 1
  %exitcond.not = icmp eq i32 %64, 8
  br i1 %exitcond.not, label %65, label %54, !llvm.loop !35

65:                                               ; preds = %54
  %66 = tail call i32 @BIO_puts(ptr noundef %0, ptr noundef nonnull @.str.23) #7
  br label %74

67:                                               ; preds = %33
  %68 = tail call i32 (ptr, ptr, ...) @BIO_printf(ptr noundef %0, ptr noundef nonnull @.str.24) #7
  br label %74

69:                                               ; preds = %2
  %70 = tail call i32 (ptr, ptr, ...) @BIO_printf(ptr noundef %0, ptr noundef nonnull @.str.13) #7
  %71 = getelementptr inbounds nuw i8, ptr %1, i64 8
  %72 = load ptr, ptr %71, align 8, !tbaa !30
  %73 = tail call i32 @i2a_ASN1_OBJECT(ptr noundef %0, ptr noundef %72) #7
  br label %74

74:                                               ; preds = %39, %65, %69, %67, %28, %22, %16, %10, %8, %6, %4, %2
  ret i32 1
}